target datalayout = "e-m:e-p270:32:32-p271:32:32-p272:64:64-i64:64-i128:128-f80:128-n8:16:32:64-S128"
target triple = "x86_64-pc-linux-gnu"

%struct._asn1_ctx_t = type { i32, i32, i8, ptr, ptr, ptr, ptr, ptr, %struct.anon.2, %struct.anon.5, %struct.anon.6, ptr }
%struct.anon.2 = type { i32, i8, i8, i8, ptr, ptr, i32, i32, ptr, ptr, ptr, %union.anon }
%union.anon = type { %struct.anon.3 }
%struct.anon.3 = type { ptr }
%struct.anon.5 = type { ptr, ptr, ptr }
%struct.anon.6 = type { i32, i8, ptr, i32, i32, ptr, ptr, ptr, %union.anon.7 }
%union.anon.7 = type { %struct.anon.8 }
%struct.anon.8 = type { ptr }

@hf_h248_mtpaddress_ni = internal global i32 0, align 4
@hf_h248_mtpaddress_pc = internal global i32 0, align 4
@ett_mtpaddress = internal global i32 0, align 4
@.str.1312 = private unnamed_addr constant [29 x i8] c"  NI = %d, PC = %d ( %d-%d )\00", align 1

; Function Attrs: nounwind uwtable
define internal i32 @dissect_h248_MtpAddress(i1 noundef zeroext %0, ptr noundef %1, i32 noundef %2, ptr noundef %3, ptr noundef %4, i32 noundef %5) #0 {
  %7 = alloca i8, align 1
  %8 = alloca ptr, align 8
  %9 = alloca i32, align 4
  %10 = alloca ptr, align 8
  %11 = alloca ptr, align 8
  %12 = alloca i32, align 4
  %13 = alloca ptr, align 8
  %14 = alloca ptr, align 8
  %15 = alloca i32, align 4
  %16 = alloca i32, align 4
  %17 = alloca i32, align 4
  %18 = alloca i32, align 4
  %19 = zext i1 %0 to i8
  store i8 %19, ptr %7, align 1
  store ptr %1, ptr %8, align 8
  store i32 %2, ptr %9, align 4
  store ptr %3, ptr %10, align 8
  store ptr %4, ptr %11, align 8
  store i32 %5, ptr %12, align 4
  store ptr null, ptr %14, align 8
  %20 = load i32, ptr %9, align 4
  store i32 %20, ptr %18, align 4
  %21 = load i8, ptr %7, align 1
  %22 = trunc i8 %21 to i1
  %23 = load ptr, ptr %10, align 8
  %24 = load ptr, ptr %11, align 8
  %25 = load ptr, ptr %8, align 8
  %26 = load i32, ptr %9, align 4
  %27 = load i32, ptr %12, align 4
  %28 = call i32 @dissect_ber_octet_string(i1 noundef zeroext %22, ptr noundef %23, ptr noundef %24, ptr noundef %25, i32 noundef %26, i32 noundef %27, ptr noundef %13)
  store i32 %28, ptr %9, align 4
  %29 = load ptr, ptr %13, align 8
  %30 = icmp ne ptr %29, null
  br i1 %30, label %31, label %90

31:                                               ; preds = %6
  store i32 0, ptr %15, align 4
  %32 = load ptr, ptr %13, align 8
  %33 = call i32 @tvb_reported_length(ptr noundef %32)
  store i32 %33, ptr %17, align 4
  store i32 0, ptr %16, align 4
  br label %34

34:                                               ; preds = %46, %31
  %35 = load i32, ptr %16, align 4
  %36 = load i32, ptr %17, align 4
  %37 = icmp slt i32 %35, %36
  br i1 %37, label %38, label %49

38:                                               ; preds = %34
  %39 = load i32, ptr %15, align 4
  %40 = shl i32 %39, 8
  %41 = load ptr, ptr %13, align 8
  %42 = load i32, ptr %16, align 4
  %43 = call zeroext i8 @tvb_get_guint8(ptr noundef %41, i32 noundef %42)
  %44 = zext i8 %43 to i32
  %45 = or i32 %40, %44
  store i32 %45, ptr %15, align 4
  br label %46

46:                                               ; preds = %38
  %47 = load i32, ptr %16, align 4
  %48 = add i32 %47, 1
  store i32 %48, ptr %16, align 4
  br label %34, !llvm.loop !26

49:                                               ; preds = %34
  %50 = load ptr, ptr %10, align 8
  %51 = getelementptr inbounds %struct._asn1_ctx_t, ptr %50, i32 0, i32 4
  %52 = load ptr, ptr %51, align 8
  %53 = load i32, ptr %15, align 4
  %54 = and i32 %53, 3
  %55 = load i32, ptr %15, align 4
  %56 = lshr i32 %55, 2
  %57 = load i32, ptr %15, align 4
  %58 = and i32 %57, 3
  %59 = load i32, ptr %15, align 4
  %60 = lshr i32 %59, 2
  call void (ptr, ptr, ...) @proto_item_append_text(ptr noundef %52, ptr noundef @.str.1312, i32 noundef %54, i32 noundef %56, i32 noundef %58, i32 noundef %60)
  %61 = load ptr, ptr %11, align 8
  %62 = icmp ne ptr %61, null
  br i1 %62, label %63, label %69

63:                                               ; preds = %49
  %64 = load ptr, ptr %10, align 8
  %65 = getelementptr inbounds %struct._asn1_ctx_t, ptr %64, i32 0, i32 4
  %66 = load ptr, ptr %65, align 8
  %67 = load i32, ptr @ett_mtpaddress, align 4
  %68 = call ptr @proto_item_add_subtree(ptr noundef %66, i32 noundef %67)
  store ptr %68, ptr %14, align 8
  br label %69

69:                                               ; preds = %63, %49
  %70 = load ptr, ptr %14, align 8
  %71 = load i32, ptr @hf_h248_mtpaddress_ni, align 4
  %72 = load ptr, ptr %8, align 8
  %73 = load i32, ptr %18, align 4
  %74 = load i32, ptr %9, align 4
  %75 = load i32, ptr %18, align 4
  %76 = sub i32 %74, %75
  %77 = load i32, ptr %15, align 4
  %78 = and i32 %77, 3
  %79 = call ptr @proto_tree_add_uint(ptr noundef %70, i32 noundef %71, ptr noundef %72, i32 noundef %73, i32 noundef %76, i32 noundef %78)
  %80 = load ptr, ptr %14, align 8
  %81 = load i32, ptr @hf_h248_mtpaddress_pc, align 4
  %82 = load ptr, ptr %8, align 8
  %83 = load i32, ptr %18, align 4
  %84 = load i32, ptr %9, align 4
  %85 = load i32, ptr %18, align 4
  %86 = sub i32 %84, %85
  %87 = load i32, ptr %15, align 4
  %88 = lshr i32 %87, 2
  %89 = call ptr @proto_tree_add_uint(ptr noundef %80, i32 noundef %81, ptr noundef %82, i32 noundef %83, i32 noundef %86, i32 noundef %88)
  br label %90

90:                                               ; preds = %69, %6
  %91 = load i32, ptr %9, align 4
  ret i32 %91
}