; Function Attrs: nounwind uwtable
define internal i32 @dissect_h248_MtpAddress(i1 noundef zeroext %0, ptr noundef %1, i32 noundef %2, ptr noundef %3, ptr noundef %4, i32 noundef %5) #0 {
  %7 = alloca ptr, align 8
  %8 = call i32 @dissect_ber_octet_string(i1 noundef zeroext %0, ptr noundef %3, ptr noundef %4, ptr noundef %1, i32 noundef %2, i32 noundef %5, ptr noundef nonnull %7) #7
  %9 = load ptr, ptr %7, align 8
  %.not = icmp eq ptr %9, null
  br i1 %.not, label %33, label %10

10:                                               ; preds = %6
  %11 = call i32 @tvb_reported_length(ptr noundef nonnull %9) #7
  %12 = icmp sgt i32 %11, 0
  br i1 %12, label %.lr.ph, label %._crit_edge

.lr.ph:                                           ; preds = %10, %.lr.ph
  %.03136 = phi i32 [ %18, %.lr.ph ], [ 0, %10 ]
  %.03235 = phi i32 [ %17, %.lr.ph ], [ 0, %10 ]
  %13 = shl i32 %.03235, 8
  %14 = load ptr, ptr %7, align 8
  %15 = call zeroext i8 @tvb_get_guint8(ptr noundef %14, i32 noundef %.03136) #7
  %16 = zext i8 %15 to i32
  %17 = or disjoint i32 %13, %16
  %18 = add nuw nsw i32 %.03136, 1
  %exitcond.not = icmp eq i32 %18, %11
  br i1 %exitcond.not, label %._crit_edge, label %.lr.ph, !llvm.loop !26

._crit_edge:                                      ; preds = %.lr.ph, %10
  %.032.lcssa = phi i32 [ 0, %10 ], [ %17, %.lr.ph ]
  %19 = getelementptr inbounds nuw i8, ptr %3, i64 24
  %20 = load ptr, ptr %19, align 8
  %21 = and i32 %.032.lcssa, 3
  %22 = lshr i32 %.032.lcssa, 2
  call void (ptr, ptr, ...) @proto_item_append_text(ptr noundef %20, ptr noundef nonnull @.str.1312, i32 noundef %21, i32 noundef %22, i32 noundef %21, i32 noundef %22) #7
  %.not34 = icmp eq ptr %4, null
  br i1 %.not34, label %27, label %23

23:                                               ; preds = %._crit_edge
  %24 = load ptr, ptr %19, align 8
  %25 = load i32, ptr @ett_mtpaddress, align 4
  %26 = call ptr @proto_item_add_subtree(ptr noundef %24, i32 noundef %25) #7
  br label %27

27:                                               ; preds = %23, %._crit_edge
  %.0 = phi ptr [ %26, %23 ], [ null, %._crit_edge ]
  %28 = load i32, ptr @hf_h248_mtpaddress_ni, align 4
  %29 = sub i32 %8, %2
  %30 = call ptr @proto_tree_add_uint(ptr noundef %.0, i32 noundef %28, ptr noundef %1, i32 noundef %2, i32 noundef %29, i32 noundef %21) #7
  %31 = load i32, ptr @hf_h248_mtpaddress_pc, align 4
  %32 = call ptr @proto_tree_add_uint(ptr noundef %.0, i32 noundef %31, ptr noundef %1, i32 noundef %2, i32 noundef %29, i32 noundef %22) #7
  br label %33

33:                                               ; preds = %27, %6
  ret i32 %8
}